target datalayout = "e-m:e-p270:32:32-p271:32:32-p272:64:64-i64:64-i128:128-f80:128-n8:16:32:64-S128"
target triple = "x86_64-pc-linux-gnu"

%struct.IDAMemRec = type { double, ptr, ptr, i32, double, double, ptr, i32, ptr, ptr, i32, ptr, ptr, i32, i32, double, double, ptr, i32, i32, i32, ptr, ptr, i32, ptr, ptr, ptr, i32, double, i32, i32, double, ptr, ptr, i32, ptr, ptr, i32, i32, i32, double, ptr, ptr, [6 x ptr], [6 x double], [6 x double], [6 x double], [6 x double], [6 x double], ptr, ptr, ptr, ptr, ptr, ptr, ptr, ptr, ptr, ptr, ptr, ptr, ptr, ptr, ptr, [6 x ptr], ptr, ptr, ptr, ptr, [6 x ptr], ptr, ptr, ptr, ptr, ptr, ptr, ptr, ptr, ptr, ptr, ptr, ptr, ptr, ptr, [6 x ptr], ptr, ptr, ptr, ptr, ptr, double, ptr, ptr, i32, i32, i32, i32, i32, i32, i32, double, double, double, i32, double, i32, i32, i32, i32, double, double, double, double, double, double, double, double, double, double, double, double, double, double, i32, i32, i32, i32, i32, i64, double, i32, i64, i64, i64, i64, i64, i64, i64, i64, i64, i64, i64, i64, i64, i64, i64, i64, i64, i64, i64, i64, i64, i64, i64, i64, ptr, ptr, ptr, i32, i32, i32, i32, i32, i32, i32, i32, i32, i32, i32, i32, i32, ptr, ptr, ptr, ptr, ptr, ptr, i32, i32, i32, i32, i32, i32, double, double, double, ptr, i32, ptr, ptr, double, double, double, ptr, ptr, ptr, double, double, i32, i32, i64, ptr, i32, i32, ptr, i32 }
%struct.IDAadjMemRec = type { double, double, i32, i32, double, ptr, i32, ptr, i32, ptr, ptr, i32, i64, ptr, i64, i32, ptr, ptr, ptr, ptr, i32, i32, i32, i32, i32, [6 x ptr], [6 x ptr], [6 x double], ptr, ptr, ptr, ptr, i64 }
%struct.IDABMemRec = type { i32, double, ptr, i32, i32, ptr, ptr, ptr, ptr, ptr, ptr, ptr, ptr, ptr, double, ptr, ptr, ptr }
%struct.IDASpilsMemRecB = type { ptr, ptr, ptr, ptr, ptr, ptr, ptr }

@.str = private unnamed_addr constant [9 x i8] c"IDASPBCG\00", align 1
@.str.2 = private unnamed_addr constant [27 x i8] c"Integrator memory is NULL.\00", align 1
@.str.4 = private unnamed_addr constant [25 x i8] c"A memory request failed.\00", align 1
@.str.5 = private unnamed_addr constant [10 x i8] c"IDASpbcgB\00", align 1
@.str.6 = private unnamed_addr constant [51 x i8] c"Illegal attempt to call before calling IDAAdjInit.\00", align 1
@.str.7 = private unnamed_addr constant [25 x i8] c"Illegal value for which.\00", align 1

; Function Attrs: nounwind uwtable
define i32 @IDASpbcgB(ptr noundef %0, i32 noundef %1, i32 noundef %2) #0 {
  %4 = alloca i32, align 4
  %5 = alloca ptr, align 8
  %6 = alloca i32, align 4
  %7 = alloca i32, align 4
  %8 = alloca ptr, align 8
  %9 = alloca ptr, align 8
  %10 = alloca ptr, align 8
  %11 = alloca ptr, align 8
  %12 = alloca ptr, align 8
  %13 = alloca i32, align 4
  %14 = alloca i32, align 4
  store ptr %0, ptr %5, align 8, !tbaa !3
  store i32 %1, ptr %6, align 4, !tbaa !7
  store i32 %2, ptr %7, align 4, !tbaa !7
  call void @llvm.lifetime.start.p0(i64 8, ptr %8) #5
  call void @llvm.lifetime.start.p0(i64 8, ptr %9) #5
  call void @llvm.lifetime.start.p0(i64 8, ptr %10) #5
  call void @llvm.lifetime.start.p0(i64 8, ptr %11) #5
  call void @llvm.lifetime.start.p0(i64 8, ptr %12) #5
  call void @llvm.lifetime.start.p0(i64 4, ptr %13) #5
  %15 = load ptr, ptr %5, align 8, !tbaa !3
  %16 = icmp eq ptr %15, null
  br i1 %16, label %17, label %18

17:                                               ; preds = %3
  call void (ptr, i32, ptr, ptr, ptr, ...) @IDAProcessError(ptr noundef null, i32 noundef -1, ptr noundef @.str, ptr noundef @.str.5, ptr noundef @.str.2)
  store i32 -1, ptr %4, align 4
  store i32 1, ptr %14, align 4
  br label %89

18:                                               ; preds = %3
  %19 = load ptr, ptr %5, align 8, !tbaa !3
  store ptr %19, ptr %8, align 8, !tbaa !9
  %20 = load ptr, ptr %8, align 8, !tbaa !9
  %21 = getelementptr inbounds nuw %struct.IDAMemRec, ptr %20, i32 0, i32 205
  %22 = load i32, ptr %21, align 8, !tbaa !82
  %23 = icmp eq i32 %22, 0
  br i1 %23, label %24, label %26

24:                                               ; preds = %18
  %25 = load ptr, ptr %8, align 8, !tbaa !9
  call void (ptr, i32, ptr, ptr, ptr, ...) @IDAProcessError(ptr noundef %25, i32 noundef -101, ptr noundef @.str, ptr noundef @.str.5, ptr noundef @.str.6)
  store i32 -101, ptr %4, align 4
  store i32 1, ptr %14, align 4
  br label %89

26:                                               ; preds = %18
  %27 = load ptr, ptr %8, align 8, !tbaa !9
  %28 = getelementptr inbounds nuw %struct.IDAMemRec, ptr %27, i32 0, i32 204
  %29 = load ptr, ptr %28, align 8, !tbaa !83
  store ptr %29, ptr %9, align 8, !tbaa !84
  %30 = load i32, ptr %6, align 4, !tbaa !7
  %31 = load ptr, ptr %9, align 8, !tbaa !84
  %32 = getelementptr inbounds nuw %struct.IDAadjMemRec, ptr %31, i32 0, i32 6
  %33 = load i32, ptr %32, align 8, !tbaa !85
  %34 = icmp sge i32 %30, %33
  br i1 %34, label %35, label %37

35:                                               ; preds = %26
  %36 = load ptr, ptr %8, align 8, !tbaa !9
  call void (ptr, i32, ptr, ptr, ptr, ...) @IDAProcessError(ptr noundef %36, i32 noundef -3, ptr noundef @.str, ptr noundef @.str.5, ptr noundef @.str.7)
  store i32 -3, ptr %4, align 4
  store i32 1, ptr %14, align 4
  br label %89

37:                                               ; preds = %26
  %38 = load ptr, ptr %9, align 8, !tbaa !84
  %39 = getelementptr inbounds nuw %struct.IDAadjMemRec, ptr %38, i32 0, i32 5
  %40 = load ptr, ptr %39, align 8, !tbaa !90
  store ptr %40, ptr %10, align 8, !tbaa !91
  br label %41

41:                                               ; preds = %51, %37
  %42 = load ptr, ptr %10, align 8, !tbaa !91
  %43 = icmp ne ptr %42, null
  br i1 %43, label %44, label %55

44:                                               ; preds = %41
  %45 = load i32, ptr %6, align 4, !tbaa !7
  %46 = load ptr, ptr %10, align 8, !tbaa !91
  %47 = getelementptr inbounds nuw %struct.IDABMemRec, ptr %46, i32 0, i32 0
  %48 = load i32, ptr %47, align 8, !tbaa !92
  %49 = icmp eq i32 %45, %48
  br i1 %49, label %50, label %51

50:                                               ; preds = %44
  br label %55

51:                                               ; preds = %44
  %52 = load ptr, ptr %10, align 8, !tbaa !91
  %53 = getelementptr inbounds nuw %struct.IDABMemRec, ptr %52, i32 0, i32 17
  %54 = load ptr, ptr %53, align 8, !tbaa !94
  store ptr %54, ptr %10, align 8, !tbaa !91
  br label %41, !llvm.loop !95

55:                                               ; preds = %50, %41
  %56 = load ptr, ptr %10, align 8, !tbaa !91
  %57 = getelementptr inbounds nuw %struct.IDABMemRec, ptr %56, i32 0, i32 2
  %58 = load ptr, ptr %57, align 8, !tbaa !97
  store ptr %58, ptr %12, align 8, !tbaa !3
  store ptr null, ptr %11, align 8, !tbaa !98
  %59 = call noalias ptr @malloc(i64 noundef 56) #6
  store ptr %59, ptr %11, align 8, !tbaa !98
  %60 = load ptr, ptr %11, align 8, !tbaa !98
  %61 = icmp eq ptr %60, null
  br i1 %61, label %62, label %64

62:                                               ; preds = %55
  %63 = load ptr, ptr %8, align 8, !tbaa !9
  call void (ptr, i32, ptr, ptr, ptr, ...) @IDAProcessError(ptr noundef %63, i32 noundef -4, ptr noundef @.str, ptr noundef @.str.5, ptr noundef @.str.4)
  store i32 -4, ptr %4, align 4
  store i32 1, ptr %14, align 4
  br label %89

64:                                               ; preds = %55
  %65 = load ptr, ptr %11, align 8, !tbaa !98
  %66 = getelementptr inbounds nuw %struct.IDASpilsMemRecB, ptr %65, i32 0, i32 2
  store ptr null, ptr %66, align 8, !tbaa !100
  %67 = load ptr, ptr %11, align 8, !tbaa !98
  %68 = getelementptr inbounds nuw %struct.IDASpilsMemRecB, ptr %67, i32 0, i32 4
  store ptr null, ptr %68, align 8, !tbaa !102
  %69 = load ptr, ptr %11, align 8, !tbaa !98
  %70 = getelementptr inbounds nuw %struct.IDASpilsMemRecB, ptr %69, i32 0, i32 6
  store ptr null, ptr %70, align 8, !tbaa !103
  %71 = load ptr, ptr %11, align 8, !tbaa !98
  %72 = getelementptr inbounds nuw %struct.IDASpilsMemRecB, ptr %71, i32 0, i32 0
  store ptr null, ptr %72, align 8, !tbaa !104
  %73 = load ptr, ptr %11, align 8, !tbaa !98
  %74 = load ptr, ptr %10, align 8, !tbaa !91
  %75 = getelementptr inbounds nuw %struct.IDABMemRec, ptr %74, i32 0, i32 10
  store ptr %73, ptr %75, align 8, !tbaa !105
  %76 = load ptr, ptr %10, align 8, !tbaa !91
  %77 = getelementptr inbounds nuw %struct.IDABMemRec, ptr %76, i32 0, i32 11
  store ptr @IDASpbcgFreeB, ptr %77, align 8, !tbaa !106
  %78 = load ptr, ptr %10, align 8, !tbaa !91
  %79 = getelementptr inbounds nuw %struct.IDABMemRec, ptr %78, i32 0, i32 2
  %80 = load ptr, ptr %79, align 8, !tbaa !97
  %81 = load i32, ptr %7, align 4, !tbaa !7
  %82 = call i32 @IDASpbcg(ptr noundef %80, i32 noundef %81)
  store i32 %82, ptr %13, align 4, !tbaa !7
  %83 = load i32, ptr %13, align 4, !tbaa !7
  %84 = icmp ne i32 %83, 0
  br i1 %84, label %85, label %87

85:                                               ; preds = %64
  %86 = load ptr, ptr %11, align 8, !tbaa !98
  call void @free(ptr noundef %86) #5
  store ptr null, ptr %11, align 8, !tbaa !98
  br label %87

87:                                               ; preds = %85, %64
  %88 = load i32, ptr %13, align 4, !tbaa !7
  store i32 %88, ptr %4, align 4
  store i32 1, ptr %14, align 4
  br label %89

89:                                               ; preds = %87, %62, %35, %24, %17
  call void @llvm.lifetime.end.p0(i64 4, ptr %13) #5
  call void @llvm.lifetime.end.p0(i64 8, ptr %12) #5
  call void @llvm.lifetime.end.p0(i64 8, ptr %11) #5
  call void @llvm.lifetime.end.p0(i64 8, ptr %10) #5
  call void @llvm.lifetime.end.p0(i64 8, ptr %9) #5
  call void @llvm.lifetime.end.p0(i64 8, ptr %8) #5
  %90 = load i32, ptr %4, align 4
  ret i32 %90
}