; Function Attrs: nounwind uwtable
define range(i32 -101, 1) i32 @IDASpbcgB(ptr noundef %0, i32 noundef %1, i32 noundef %2) local_unnamed_addr #0 {
  %4 = icmp eq ptr %0, null
  br i1 %4, label %5, label %6

5:                                                ; preds = %3
  tail call void (ptr, i32, ptr, ptr, ptr, ...) @IDAProcessError(ptr noundef null, i32 noundef -1, ptr noundef nonnull @.str, ptr noundef nonnull @.str.5, ptr noundef nonnull @.str.2) #8
  br label %36

6:                                                ; preds = %3
  %7 = getelementptr inbounds nuw i8, ptr %0, i64 1824
  %8 = load i32, ptr %7, align 8, !tbaa !72
  %9 = icmp eq i32 %8, 0
  br i1 %9, label %10, label %11

10:                                               ; preds = %6
  tail call void (ptr, i32, ptr, ptr, ptr, ...) @IDAProcessError(ptr noundef nonnull %0, i32 noundef -101, ptr noundef nonnull @.str, ptr noundef nonnull @.str.5, ptr noundef nonnull @.str.6) #8
  br label %36

11:                                               ; preds = %6
  %12 = getelementptr inbounds nuw i8, ptr %0, i64 1816
  %13 = load ptr, ptr %12, align 8, !tbaa !73
  %14 = getelementptr inbounds nuw i8, ptr %13, i64 40
  %15 = load i32, ptr %14, align 8, !tbaa !74
  %.not = icmp slt i32 %1, %15
  br i1 %.not, label %17, label %16

16:                                               ; preds = %11
  tail call void (ptr, i32, ptr, ptr, ptr, ...) @IDAProcessError(ptr noundef nonnull %0, i32 noundef -3, ptr noundef nonnull @.str, ptr noundef nonnull @.str.5, ptr noundef nonnull @.str.7) #8
  br label %36

17:                                               ; preds = %11
  %18 = getelementptr inbounds nuw i8, ptr %13, i64 32
  %.02834 = load ptr, ptr %18, align 8, !tbaa !79
  %.not3235 = icmp eq ptr %.02834, null
  br i1 %.not3235, label %._crit_edge, label %.lr.ph

.lr.ph:                                           ; preds = %17, %21
  %.02836 = phi ptr [ %.028, %21 ], [ %.02834, %17 ]
  %19 = load i32, ptr %.02836, align 8, !tbaa !80
  %20 = icmp eq i32 %1, %19
  br i1 %20, label %._crit_edge, label %21

21:                                               ; preds = %.lr.ph
  %22 = getelementptr inbounds nuw i8, ptr %.02836, i64 128
  %.028 = load ptr, ptr %22, align 8, !tbaa !79
  %.not32 = icmp eq ptr %.028, null
  br i1 %.not32, label %._crit_edge, label %.lr.ph, !llvm.loop !83

._crit_edge:                                      ; preds = %21, %.lr.ph, %17
  %.028.lcssa = phi ptr [ null, %17 ], [ %.02836, %.lr.ph ], [ null, %21 ]
  %23 = tail call noalias dereferenceable_or_null(56) ptr @malloc(i64 noundef 56) #9
  %24 = icmp eq ptr %23, null
  br i1 %24, label %25, label %26

25:                                               ; preds = %._crit_edge
  tail call void (ptr, i32, ptr, ptr, ptr, ...) @IDAProcessError(ptr noundef nonnull %0, i32 noundef -4, ptr noundef nonnull @.str, ptr noundef nonnull @.str.5, ptr noundef nonnull @.str.4) #8
  br label %36

26:                                               ; preds = %._crit_edge
  %27 = getelementptr inbounds nuw i8, ptr %.028.lcssa, i64 16
  %28 = getelementptr inbounds nuw i8, ptr %23, i64 16
  store ptr null, ptr %28, align 8, !tbaa !85
  %29 = getelementptr inbounds nuw i8, ptr %23, i64 32
  store ptr null, ptr %29, align 8, !tbaa !87
  %30 = getelementptr inbounds nuw i8, ptr %23, i64 48
  store ptr null, ptr %30, align 8, !tbaa !88
  store ptr null, ptr %23, align 8, !tbaa !89
  %31 = getelementptr inbounds nuw i8, ptr %.028.lcssa, i64 72
  store ptr %23, ptr %31, align 8, !tbaa !90
  %32 = getelementptr inbounds nuw i8, ptr %.028.lcssa, i64 80
  store ptr @IDASpbcgFreeB, ptr %32, align 8, !tbaa !91
  %33 = load ptr, ptr %27, align 8, !tbaa !92
  %34 = tail call i32 @IDASpbcg(ptr noundef %33, i32 noundef %2)
  %.not33 = icmp eq i32 %34, 0
  br i1 %.not33, label %36, label %35

35:                                               ; preds = %26
  tail call void @free(ptr noundef nonnull %23) #8
  br label %36

36:                                               ; preds = %26, %35, %25, %16, %10, %5
  %.0 = phi i32 [ -1, %5 ], [ -101, %10 ], [ -3, %16 ], [ -4, %25 ], [ %34, %35 ], [ 0, %26 ]
  ret i32 %.0
}